; ModuleID = '44/1027.c'
source_filename = "44/1027.c"
target datalayout = "e-m:e-p270:32:32-p271:32:32-p272:64:64-i64:64-f80:128-n8:16:32:64-S128"
target triple = "x86_64-pc-linux-gnu"

@.str = private unnamed_addr constant [3 x i8] c"%d\00", align 1
@.str.1 = private unnamed_addr constant [4 x i8] c"%d\0A\00", align 1

; Function Attrs: noinline nounwind uwtable
define dso_local i32 @main() #0 {
  %1 = alloca i32, align 4
  %2 = alloca [6 x i32], align 16
  %3 = alloca i32, align 4
  store i32 0, i32* %1, align 4
  store i32 0, i32* %3, align 4
  br label %4

4:                                                ; preds = %12, %0
  %5 = load i32, i32* %3, align 4
  %6 = icmp slt i32 %5, 6
  br i1 %6, label %7, label %15

7:                                                ; preds = %4
  %8 = load i32, i32* %3, align 4
  %9 = sext i32 %8 to i64
  %10 = getelementptr inbounds [6 x i32], [6 x i32]* %2, i64 0, i64 %9
  %11 = call i32 (i8*, ...) @__isoc99_scanf(i8* getelementptr inbounds ([3 x i8], [3 x i8]* @.str, i64 0, i64 0), i32* %10)
  br label %12

12:                                               ; preds = %7
  %13 = load i32, i32* %3, align 4
  %14 = add nsw i32 %13, 1
  store i32 %14, i32* %3, align 4
  br label %4

15:                                               ; preds = %4
  store i32 0, i32* %3, align 4
  br label %16

16:                                               ; preds = %26, %15
  %17 = load i32, i32* %3, align 4
  %18 = icmp slt i32 %17, 6
  br i1 %18, label %19, label %29

19:                                               ; preds = %16
  %20 = load i32, i32* %3, align 4
  %21 = sext i32 %20 to i64
  %22 = getelementptr inbounds [6 x i32], [6 x i32]* %2, i64 0, i64 %21
  %23 = load i32, i32* %22, align 4
  %24 = call i32 @reverse(i32 %23)
  %25 = call i32 (i8*, ...) @printf(i8* getelementptr inbounds ([4 x i8], [4 x i8]* @.str.1, i64 0, i64 0), i32 %24)
  br label %26

26:                                               ; preds = %19
  %27 = load i32, i32* %3, align 4
  %28 = add nsw i32 %27, 1
  store i32 %28, i32* %3, align 4
  br label %16

29:                                               ; preds = %16
  ret i32 0
}

declare dso_local i32 @__isoc99_scanf(i8*, ...) #1

declare dso_local i32 @printf(i8*, ...) #1

; Function Attrs: noinline nounwind uwtable
define dso_local i32 @reverse(i32 %0) #0 {
  %2 = alloca i32, align 4
  %3 = alloca i32, align 4
  %4 = alloca i32, align 4
  store i32 %0, i32* %3, align 4
  store i32 0, i32* %4, align 4
  %5 = load i32, i32* %3, align 4
  %6 = icmp sge i32 %5, 10
  br i1 %6, label %10, label %7

7:                                                ; preds = %1
  %8 = load i32, i32* %3, align 4
  %9 = icmp sle i32 %8, -10
  br i1 %9, label %10, label %33

10:                                               ; preds = %7, %1
  br label %11

11:                                               ; preds = %19, %10
  %12 = load i32, i32* %3, align 4
  %13 = icmp sge i32 %12, 10
  br i1 %13, label %17, label %14

14:                                               ; preds = %11
  %15 = load i32, i32* %3, align 4
  %16 = icmp sle i32 %15, -10
  br label %17

17:                                               ; preds = %14, %11
  %18 = phi i1 [ true, %11 ], [ %16, %14 ]
  br i1 %18, label %19, label %27

19:                                               ; preds = %17
  %20 = load i32, i32* %4, align 4
  %21 = mul nsw i32 %20, 10
  %22 = load i32, i32* %3, align 4
  %23 = srem i32 %22, 10
  %24 = add nsw i32 %21, %23
  store i32 %24, i32* %4, align 4
  %25 = load i32, i32* %3, align 4
  %26 = sdiv i32 %25, 10
  store i32 %26, i32* %3, align 4
  br label %11

27:                                               ; preds = %17
  %28 = load i32, i32* %4, align 4
  %29 = mul nsw i32 %28, 10
  %30 = load i32, i32* %3, align 4
  %31 = add nsw i32 %29, %30
  store i32 %31, i32* %4, align 4
  %32 = load i32, i32* %4, align 4
  store i32 %32, i32* %2, align 4
  br label %36

33:                                               ; preds = %7
  %34 = load i32, i32* %3, align 4
  store i32 %34, i32* %4, align 4
  %35 = load i32, i32* %4, align 4
  store i32 %35, i32* %2, align 4
  br label %36

36:                                               ; preds = %33, %27
  %37 = load i32, i32* %2, align 4
  ret i32 %37
}


!llvm.module.flags = !{!0}
!llvm.ident = !{!1}

!0 = !{i32 1, !"wchar_size", i32 4}
!1 = !{!"clang version 10.0.0-4ubuntu1 "}
